; Function Attrs: mustprogress uwtable
define hidden void @_ZN4cvc58internal6theory13OutputChannel15setModelUnsoundENS1_12IncompleteIdE(ptr nocapture noundef nonnull readonly align 8 dereferenceable(100) %this, i32 noundef %id) unnamed_addr #3 align 2 {
cond.end:
  %d_engine = getelementptr inbounds i8, ptr %this, i64 8
  %0 = load ptr, ptr %d_engine, align 8
  %d_theory = getelementptr inbounds i8, ptr %this, i64 96
  %1 = load i32, ptr %d_theory, align 8
  tail call void @_ZN4cvc58internal12TheoryEngine15setModelUnsoundENS0_6theory8TheoryIdENS2_12IncompleteIdE(ptr noundef nonnull align 8 dereferenceable(1448) %0, i32 noundef %1, i32 noundef %id)
  ret void
}